target datalayout = "e-m:e-p270:32:32-p271:32:32-p272:64:64-i64:64-i128:128-f80:128-n8:16:32:64-S128"
target triple = "x86_64-pc-linux-gnu"

@hf_cigi3_view_control_view_id = internal global i32 0, align 4
@hf_cigi3_view_control_group_id = internal global i32 0, align 4
@hf_cigi3_view_control_xoff_enable = internal global i32 0, align 4
@hf_cigi3_view_control_yoff_enable = internal global i32 0, align 4
@hf_cigi3_view_control_zoff_enable = internal global i32 0, align 4
@hf_cigi3_view_control_roll_enable = internal global i32 0, align 4
@hf_cigi3_view_control_pitch_enable = internal global i32 0, align 4
@hf_cigi3_view_control_yaw_enable = internal global i32 0, align 4
@hf_cigi3_view_control_entity_id = internal global i32 0, align 4
@hf_cigi3_view_control_xoff = internal global i32 0, align 4
@hf_cigi3_view_control_yoff = internal global i32 0, align 4
@hf_cigi3_view_control_zoff = internal global i32 0, align 4
@hf_cigi3_view_control_roll = internal global i32 0, align 4
@hf_cigi3_view_control_pitch = internal global i32 0, align 4
@hf_cigi3_view_control_yaw = internal global i32 0, align 4
@hf_cigi4_view_control_enable_flags = internal global i32 0, align 4
@ett_cigi4_view_control_enable_flags = internal global i32 0, align 4
@cigi_byte_order = internal global i32 0, align 4

; Function Attrs: null_pointer_is_valid sspstrong uwtable
define internal i32 @cigi4_add_view_control(ptr noundef %0, ptr noundef %1, ptr noundef %2, ptr noundef %3) #0 {
  %5 = alloca ptr, align 8
  %6 = alloca ptr, align 8
  %7 = alloca ptr, align 8
  %8 = alloca ptr, align 8
  %9 = alloca i32, align 4
  %10 = alloca ptr, align 8
  %11 = alloca ptr, align 8
  store ptr %0, ptr %5, align 8
  store ptr %1, ptr %6, align 8
  store ptr %2, ptr %7, align 8
  store ptr %3, ptr %8, align 8
  call void @llvm.lifetime.start.p0(i64 4, ptr %9) #5
  store i32 0, ptr %9, align 4
  call void @llvm.lifetime.start.p0(i64 8, ptr %10) #5
  call void @llvm.lifetime.start.p0(i64 8, ptr %11) #5
  %12 = load ptr, ptr %7, align 8
  %13 = load i32, ptr @hf_cigi3_view_control_group_id, align 4
  %14 = load ptr, ptr %5, align 8
  %15 = load i32, ptr %9, align 4
  %16 = load i32, ptr @cigi_byte_order, align 4
  %17 = call ptr @proto_tree_add_item(ptr noundef %12, i32 noundef %13, ptr noundef %14, i32 noundef %15, i32 noundef 1, i32 noundef %16)
  %18 = load i32, ptr %9, align 4
  %19 = add i32 %18, 1
  store i32 %19, ptr %9, align 4
  %20 = load ptr, ptr %7, align 8
  %21 = load i32, ptr @hf_cigi4_view_control_enable_flags, align 4
  %22 = load ptr, ptr %5, align 8
  %23 = load i32, ptr %9, align 4
  %24 = load i32, ptr @cigi_byte_order, align 4
  %25 = call ptr @proto_tree_add_item(ptr noundef %20, i32 noundef %21, ptr noundef %22, i32 noundef %23, i32 noundef 1, i32 noundef %24)
  store ptr %25, ptr %11, align 8
  %26 = load ptr, ptr %11, align 8
  %27 = load i32, ptr @ett_cigi4_view_control_enable_flags, align 4
  %28 = call ptr @proto_item_add_subtree(ptr noundef %26, i32 noundef %27)
  store ptr %28, ptr %10, align 8
  %29 = load ptr, ptr %10, align 8
  %30 = load i32, ptr @hf_cigi3_view_control_xoff_enable, align 4
  %31 = load ptr, ptr %5, align 8
  %32 = load i32, ptr %9, align 4
  %33 = load i32, ptr @cigi_byte_order, align 4
  %34 = call ptr @proto_tree_add_item(ptr noundef %29, i32 noundef %30, ptr noundef %31, i32 noundef %32, i32 noundef 1, i32 noundef %33)
  %35 = load ptr, ptr %10, align 8
  %36 = load i32, ptr @hf_cigi3_view_control_yoff_enable, align 4
  %37 = load ptr, ptr %5, align 8
  %38 = load i32, ptr %9, align 4
  %39 = load i32, ptr @cigi_byte_order, align 4
  %40 = call ptr @proto_tree_add_item(ptr noundef %35, i32 noundef %36, ptr noundef %37, i32 noundef %38, i32 noundef 1, i32 noundef %39)
  %41 = load ptr, ptr %10, align 8
  %42 = load i32, ptr @hf_cigi3_view_control_zoff_enable, align 4
  %43 = load ptr, ptr %5, align 8
  %44 = load i32, ptr %9, align 4
  %45 = load i32, ptr @cigi_byte_order, align 4
  %46 = call ptr @proto_tree_add_item(ptr noundef %41, i32 noundef %42, ptr noundef %43, i32 noundef %44, i32 noundef 1, i32 noundef %45)
  %47 = load ptr, ptr %10, align 8
  %48 = load i32, ptr @hf_cigi3_view_control_roll_enable, align 4
  %49 = load ptr, ptr %5, align 8
  %50 = load i32, ptr %9, align 4
  %51 = load i32, ptr @cigi_byte_order, align 4
  %52 = call ptr @proto_tree_add_item(ptr noundef %47, i32 noundef %48, ptr noundef %49, i32 noundef %50, i32 noundef 1, i32 noundef %51)
  %53 = load ptr, ptr %10, align 8
  %54 = load i32, ptr @hf_cigi3_view_control_pitch_enable, align 4
  %55 = load ptr, ptr %5, align 8
  %56 = load i32, ptr %9, align 4
  %57 = load i32, ptr @cigi_byte_order, align 4
  %58 = call ptr @proto_tree_add_item(ptr noundef %53, i32 noundef %54, ptr noundef %55, i32 noundef %56, i32 noundef 1, i32 noundef %57)
  %59 = load ptr, ptr %10, align 8
  %60 = load i32, ptr @hf_cigi3_view_control_yaw_enable, align 4
  %61 = load ptr, ptr %5, align 8
  %62 = load i32, ptr %9, align 4
  %63 = load i32, ptr @cigi_byte_order, align 4
  %64 = call ptr @proto_tree_add_item(ptr noundef %59, i32 noundef %60, ptr noundef %61, i32 noundef %62, i32 noundef 1, i32 noundef %63)
  %65 = load i32, ptr %9, align 4
  %66 = add i32 %65, 1
  store i32 %66, ptr %9, align 4
  %67 = load ptr, ptr %7, align 8
  %68 = load i32, ptr @hf_cigi3_view_control_view_id, align 4
  %69 = load ptr, ptr %5, align 8
  %70 = load i32, ptr %9, align 4
  %71 = load i32, ptr @cigi_byte_order, align 4
  %72 = call ptr @proto_tree_add_item(ptr noundef %67, i32 noundef %68, ptr noundef %69, i32 noundef %70, i32 noundef 2, i32 noundef %71)
  %73 = load i32, ptr %9, align 4
  %74 = add i32 %73, 2
  store i32 %74, ptr %9, align 4
  %75 = load ptr, ptr %7, align 8
  %76 = load i32, ptr @hf_cigi3_view_control_entity_id, align 4
  %77 = load ptr, ptr %5, align 8
  %78 = load i32, ptr %9, align 4
  %79 = load i32, ptr @cigi_byte_order, align 4
  %80 = call ptr @proto_tree_add_item(ptr noundef %75, i32 noundef %76, ptr noundef %77, i32 noundef %78, i32 noundef 2, i32 noundef %79)
  %81 = load i32, ptr %9, align 4
  %82 = add i32 %81, 2
  store i32 %82, ptr %9, align 4
  %83 = load i32, ptr %9, align 4
  %84 = add i32 %83, 2
  store i32 %84, ptr %9, align 4
  %85 = load ptr, ptr %7, align 8
  %86 = load i32, ptr @hf_cigi3_view_control_xoff, align 4
  %87 = load ptr, ptr %5, align 8
  %88 = load i32, ptr %9, align 4
  %89 = load i32, ptr @cigi_byte_order, align 4
  %90 = call ptr @proto_tree_add_item(ptr noundef %85, i32 noundef %86, ptr noundef %87, i32 noundef %88, i32 noundef 4, i32 noundef %89)
  %91 = load i32, ptr %9, align 4
  %92 = add i32 %91, 4
  store i32 %92, ptr %9, align 4
  %93 = load ptr, ptr %7, align 8
  %94 = load i32, ptr @hf_cigi3_view_control_yoff, align 4
  %95 = load ptr, ptr %5, align 8
  %96 = load i32, ptr %9, align 4
  %97 = load i32, ptr @cigi_byte_order, align 4
  %98 = call ptr @proto_tree_add_item(ptr noundef %93, i32 noundef %94, ptr noundef %95, i32 noundef %96, i32 noundef 4, i32 noundef %97)
  %99 = load i32, ptr %9, align 4
  %100 = add i32 %99, 4
  store i32 %100, ptr %9, align 4
  %101 = load ptr, ptr %7, align 8
  %102 = load i32, ptr @hf_cigi3_view_control_zoff, align 4
  %103 = load ptr, ptr %5, align 8
  %104 = load i32, ptr %9, align 4
  %105 = load i32, ptr @cigi_byte_order, align 4
  %106 = call ptr @proto_tree_add_item(ptr noundef %101, i32 noundef %102, ptr noundef %103, i32 noundef %104, i32 noundef 4, i32 noundef %105)
  %107 = load i32, ptr %9, align 4
  %108 = add i32 %107, 4
  store i32 %108, ptr %9, align 4
  %109 = load ptr, ptr %7, align 8
  %110 = load i32, ptr @hf_cigi3_view_control_roll, align 4
  %111 = load ptr, ptr %5, align 8
  %112 = load i32, ptr %9, align 4
  %113 = load i32, ptr @cigi_byte_order, align 4
  %114 = call ptr @proto_tree_add_item(ptr noundef %109, i32 noundef %110, ptr noundef %111, i32 noundef %112, i32 noundef 4, i32 noundef %113)
  %115 = load i32, ptr %9, align 4
  %116 = add i32 %115, 4
  store i32 %116, ptr %9, align 4
  %117 = load ptr, ptr %7, align 8
  %118 = load i32, ptr @hf_cigi3_view_control_pitch, align 4
  %119 = load ptr, ptr %5, align 8
  %120 = load i32, ptr %9, align 4
  %121 = load i32, ptr @cigi_byte_order, align 4
  %122 = call ptr @proto_tree_add_item(ptr noundef %117, i32 noundef %118, ptr noundef %119, i32 noundef %120, i32 noundef 4, i32 noundef %121)
  %123 = load i32, ptr %9, align 4
  %124 = add i32 %123, 4
  store i32 %124, ptr %9, align 4
  %125 = load ptr, ptr %7, align 8
  %126 = load i32, ptr @hf_cigi3_view_control_yaw, align 4
  %127 = load ptr, ptr %5, align 8
  %128 = load i32, ptr %9, align 4
  %129 = load i32, ptr @cigi_byte_order, align 4
  %130 = call ptr @proto_tree_add_item(ptr noundef %125, i32 noundef %126, ptr noundef %127, i32 noundef %128, i32 noundef 4, i32 noundef %129)
  %131 = load i32, ptr %9, align 4
  %132 = add i32 %131, 8
  store i32 %132, ptr %9, align 4
  %133 = load i32, ptr %9, align 4
  call void @llvm.lifetime.end.p0(i64 8, ptr %11) #5
  call void @llvm.lifetime.end.p0(i64 8, ptr %10) #5
  call void @llvm.lifetime.end.p0(i64 4, ptr %9) #5
  ret i32 %133
}