; Function Attrs: null_pointer_is_valid sspstrong uwtable
define internal noundef i32 @cigi4_add_view_control(ptr noundef %0, ptr readnone captures(none) %1, ptr noundef %2, ptr readnone captures(none) %3) #0 {
  %5 = load i32, ptr @hf_cigi3_view_control_group_id, align 4
  %.b74 = load i1, ptr @cigi_byte_order, align 4
  %6 = select i1 %.b74, i32 -2147483648, i32 0
  %7 = tail call ptr @proto_tree_add_item(ptr noundef %2, i32 noundef %5, ptr noundef %0, i32 noundef 0, i32 noundef 1, i32 noundef %6)
  %8 = load i32, ptr @hf_cigi4_view_control_enable_flags, align 4
  %.b73 = load i1, ptr @cigi_byte_order, align 4
  %9 = select i1 %.b73, i32 -2147483648, i32 0
  %10 = tail call ptr @proto_tree_add_item(ptr noundef %2, i32 noundef %8, ptr noundef %0, i32 noundef 1, i32 noundef 1, i32 noundef %9)
  %11 = load i32, ptr @ett_cigi4_view_control_enable_flags, align 4
  %12 = tail call ptr @proto_item_add_subtree(ptr noundef %10, i32 noundef %11)
  %13 = load i32, ptr @hf_cigi3_view_control_xoff_enable, align 4
  %.b72 = load i1, ptr @cigi_byte_order, align 4
  %14 = select i1 %.b72, i32 -2147483648, i32 0
  %15 = tail call ptr @proto_tree_add_item(ptr noundef %12, i32 noundef %13, ptr noundef %0, i32 noundef 1, i32 noundef 1, i32 noundef %14)
  %16 = load i32, ptr @hf_cigi3_view_control_yoff_enable, align 4
  %.b71 = load i1, ptr @cigi_byte_order, align 4
  %17 = select i1 %.b71, i32 -2147483648, i32 0
  %18 = tail call ptr @proto_tree_add_item(ptr noundef %12, i32 noundef %16, ptr noundef %0, i32 noundef 1, i32 noundef 1, i32 noundef %17)
  %19 = load i32, ptr @hf_cigi3_view_control_zoff_enable, align 4
  %.b70 = load i1, ptr @cigi_byte_order, align 4
  %20 = select i1 %.b70, i32 -2147483648, i32 0
  %21 = tail call ptr @proto_tree_add_item(ptr noundef %12, i32 noundef %19, ptr noundef %0, i32 noundef 1, i32 noundef 1, i32 noundef %20)
  %22 = load i32, ptr @hf_cigi3_view_control_roll_enable, align 4
  %.b69 = load i1, ptr @cigi_byte_order, align 4
  %23 = select i1 %.b69, i32 -2147483648, i32 0
  %24 = tail call ptr @proto_tree_add_item(ptr noundef %12, i32 noundef %22, ptr noundef %0, i32 noundef 1, i32 noundef 1, i32 noundef %23)
  %25 = load i32, ptr @hf_cigi3_view_control_pitch_enable, align 4
  %.b68 = load i1, ptr @cigi_byte_order, align 4
  %26 = select i1 %.b68, i32 -2147483648, i32 0
  %27 = tail call ptr @proto_tree_add_item(ptr noundef %12, i32 noundef %25, ptr noundef %0, i32 noundef 1, i32 noundef 1, i32 noundef %26)
  %28 = load i32, ptr @hf_cigi3_view_control_yaw_enable, align 4
  %.b67 = load i1, ptr @cigi_byte_order, align 4
  %29 = select i1 %.b67, i32 -2147483648, i32 0
  %30 = tail call ptr @proto_tree_add_item(ptr noundef %12, i32 noundef %28, ptr noundef %0, i32 noundef 1, i32 noundef 1, i32 noundef %29)
  %31 = load i32, ptr @hf_cigi3_view_control_view_id, align 4
  %.b66 = load i1, ptr @cigi_byte_order, align 4
  %32 = select i1 %.b66, i32 -2147483648, i32 0
  %33 = tail call ptr @proto_tree_add_item(ptr noundef %2, i32 noundef %31, ptr noundef %0, i32 noundef 2, i32 noundef 2, i32 noundef %32)
  %34 = load i32, ptr @hf_cigi3_view_control_entity_id, align 4
  %.b65 = load i1, ptr @cigi_byte_order, align 4
  %35 = select i1 %.b65, i32 -2147483648, i32 0
  %36 = tail call ptr @proto_tree_add_item(ptr noundef %2, i32 noundef %34, ptr noundef %0, i32 noundef 4, i32 noundef 2, i32 noundef %35)
  %37 = load i32, ptr @hf_cigi3_view_control_xoff, align 4
  %.b64 = load i1, ptr @cigi_byte_order, align 4
  %38 = select i1 %.b64, i32 -2147483648, i32 0
  %39 = tail call ptr @proto_tree_add_item(ptr noundef %2, i32 noundef %37, ptr noundef %0, i32 noundef 8, i32 noundef 4, i32 noundef %38)
  %40 = load i32, ptr @hf_cigi3_view_control_yoff, align 4
  %.b63 = load i1, ptr @cigi_byte_order, align 4
  %41 = select i1 %.b63, i32 -2147483648, i32 0
  %42 = tail call ptr @proto_tree_add_item(ptr noundef %2, i32 noundef %40, ptr noundef %0, i32 noundef 12, i32 noundef 4, i32 noundef %41)
  %43 = load i32, ptr @hf_cigi3_view_control_zoff, align 4
  %.b62 = load i1, ptr @cigi_byte_order, align 4
  %44 = select i1 %.b62, i32 -2147483648, i32 0
  %45 = tail call ptr @proto_tree_add_item(ptr noundef %2, i32 noundef %43, ptr noundef %0, i32 noundef 16, i32 noundef 4, i32 noundef %44)
  %46 = load i32, ptr @hf_cigi3_view_control_roll, align 4
  %.b61 = load i1, ptr @cigi_byte_order, align 4
  %47 = select i1 %.b61, i32 -2147483648, i32 0
  %48 = tail call ptr @proto_tree_add_item(ptr noundef %2, i32 noundef %46, ptr noundef %0, i32 noundef 20, i32 noundef 4, i32 noundef %47)
  %49 = load i32, ptr @hf_cigi3_view_control_pitch, align 4
  %.b60 = load i1, ptr @cigi_byte_order, align 4
  %50 = select i1 %.b60, i32 -2147483648, i32 0
  %51 = tail call ptr @proto_tree_add_item(ptr noundef %2, i32 noundef %49, ptr noundef %0, i32 noundef 24, i32 noundef 4, i32 noundef %50)
  %52 = load i32, ptr @hf_cigi3_view_control_yaw, align 4
  %.b = load i1, ptr @cigi_byte_order, align 4
  %53 = select i1 %.b, i32 -2147483648, i32 0
  %54 = tail call ptr @proto_tree_add_item(ptr noundef %2, i32 noundef %52, ptr noundef %0, i32 noundef 28, i32 noundef 4, i32 noundef %53)
  ret i32 36
}